; Function Attrs: mustprogress nofree norecurse nosync nounwind willreturn memory(read, inaccessiblemem: none) uwtable
define dso_local noundef zeroext i1 @_ZN3igl9is_planarERKN5Eigen6MatrixIdLin1ELin1ELi0ELin1ELin1EEE(ptr noundef nonnull readonly align 8 captures(none) dereferenceable(24) %0) local_unnamed_addr #0 personality ptr @__gxx_personality_v0 {
  %2 = getelementptr inbounds nuw i8, ptr %0, i64 8
  %3 = load i64, ptr %2, align 8, !tbaa !4
  %4 = getelementptr inbounds nuw i8, ptr %0, i64 16
  %5 = load i64, ptr %4, align 8, !tbaa !11
  %6 = mul nsw i64 %5, %3
  %7 = icmp eq i64 %6, 0
  br i1 %7, label %.loopexit, label %8

8:                                                ; preds = %1
  %9 = icmp eq i64 %5, 2
  %10 = icmp slt i64 %3, 1
  %or.cond = or i1 %9, %10
  br i1 %or.cond, label %.loopexit, label %.lr.ph

.lr.ph:                                           ; preds = %8
  %11 = load ptr, ptr %0, align 8, !tbaa !12
  %.idx = shl i64 %3, 4
  %invariant.gep = getelementptr i8, ptr %11, i64 %.idx
  br label %12

12:                                               ; preds = %12, %.lr.ph
  %indvars.iv = phi i64 [ 0, %.lr.ph ], [ %indvars.iv.next, %12 ]
  %gep = getelementptr double, ptr %invariant.gep, i64 %indvars.iv
  %13 = load double, ptr %gep, align 8, !tbaa !13
  %14 = fcmp oeq double %13, 0.000000e+00
  %indvars.iv.next = add nuw nsw i64 %indvars.iv, 1
  %exitcond.not = icmp ne i64 %indvars.iv.next, %3
  %or.cond15.not = select i1 %14, i1 %exitcond.not, i1 false
  br i1 %or.cond15.not, label %12, label %.loopexit, !llvm.loop !15

.loopexit:                                        ; preds = %12, %8, %1
  %.09 = phi i1 [ false, %1 ], [ true, %8 ], [ %14, %12 ]
  ret i1 %.09
}